; ModuleID = '33/1766.c'
source_filename = "33/1766.c"
target datalayout = "e-m:e-p270:32:32-p271:32:32-p272:64:64-i64:64-f80:128-n8:16:32:64-S128"
target triple = "x86_64-pc-linux-gnu"

@.str = private unnamed_addr constant [3 x i8] c"%d\00", align 1
@n = common dso_local global i32 0, align 4
@i = common dso_local global i32 0, align 4
@.str.1 = private unnamed_addr constant [3 x i8] c"%s\00", align 1
@s = common dso_local global [100 x [100 x i8]] zeroinitializer, align 16
@j = common dso_local global i32 0, align 4
@.str.2 = private unnamed_addr constant [4 x i8] c"%s\0A\00", align 1

; Function Attrs: noinline nounwind uwtable
define dso_local i32 @main() #0 {
  %1 = alloca i32, align 4
  store i32 0, i32* %1, align 4
  %2 = call i32 (i8*, ...) @__isoc99_scanf(i8* getelementptr inbounds ([3 x i8], [3 x i8]* @.str, i64 0, i64 0), i32* @n)
  store i32 0, i32* @i, align 4
  br label %3

3:                                                ; preds = %14, %0
  %4 = load i32, i32* @i, align 4
  %5 = load i32, i32* @n, align 4
  %6 = sub nsw i32 %5, 1
  %7 = icmp sle i32 %4, %6
  br i1 %7, label %8, label %17

8:                                                ; preds = %3
  %9 = load i32, i32* @i, align 4
  %10 = sext i32 %9 to i64
  %11 = getelementptr inbounds [100 x [100 x i8]], [100 x [100 x i8]]* @s, i64 0, i64 %10
  %12 = getelementptr inbounds [100 x i8], [100 x i8]* %11, i64 0, i64 0
  %13 = call i32 (i8*, ...) @__isoc99_scanf(i8* getelementptr inbounds ([3 x i8], [3 x i8]* @.str.1, i64 0, i64 0), i8* %12)
  br label %14

14:                                               ; preds = %8
  %15 = load i32, i32* @i, align 4
  %16 = add nsw i32 %15, 1
  store i32 %16, i32* @i, align 4
  br label %3

17:                                               ; preds = %3
  store i32 0, i32* @i, align 4
  br label %18

18:                                               ; preds = %110, %17
  %19 = load i32, i32* @i, align 4
  %20 = load i32, i32* @n, align 4
  %21 = sub nsw i32 %20, 1
  %22 = icmp sle i32 %19, %21
  br i1 %22, label %23, label %113

23:                                               ; preds = %18
  store i32 0, i32* @j, align 4
  br label %24

24:                                               ; preds = %106, %23
  %25 = load i32, i32* @i, align 4
  %26 = sext i32 %25 to i64
  %27 = getelementptr inbounds [100 x [100 x i8]], [100 x [100 x i8]]* @s, i64 0, i64 %26
  %28 = load i32, i32* @j, align 4
  %29 = sext i32 %28 to i64
  %30 = getelementptr inbounds [100 x i8], [100 x i8]* %27, i64 0, i64 %29
  %31 = load i8, i8* %30, align 1
  %32 = sext i8 %31 to i32
  %33 = icmp ne i32 %32, 0
  br i1 %33, label %34, label %109

34:                                               ; preds = %24
  %35 = load i32, i32* @i, align 4
  %36 = sext i32 %35 to i64
  %37 = getelementptr inbounds [100 x [100 x i8]], [100 x [100 x i8]]* @s, i64 0, i64 %36
  %38 = load i32, i32* @j, align 4
  %39 = sext i32 %38 to i64
  %40 = getelementptr inbounds [100 x i8], [100 x i8]* %37, i64 0, i64 %39
  %41 = load i8, i8* %40, align 1
  %42 = sext i8 %41 to i32
  %43 = icmp eq i32 %42, 65
  br i1 %43, label %44, label %51

44:                                               ; preds = %34
  %45 = load i32, i32* @i, align 4
  %46 = sext i32 %45 to i64
  %47 = getelementptr inbounds [100 x [100 x i8]], [100 x [100 x i8]]* @s, i64 0, i64 %46
  %48 = load i32, i32* @j, align 4
  %49 = sext i32 %48 to i64
  %50 = getelementptr inbounds [100 x i8], [100 x i8]* %47, i64 0, i64 %49
  store i8 84, i8* %50, align 1
  br label %105

51:                                               ; preds = %34
  %52 = load i32, i32* @i, align 4
  %53 = sext i32 %52 to i64
  %54 = getelementptr inbounds [100 x [100 x i8]], [100 x [100 x i8]]* @s, i64 0, i64 %53
  %55 = load i32, i32* @j, align 4
  %56 = sext i32 %55 to i64
  %57 = getelementptr inbounds [100 x i8], [100 x i8]* %54, i64 0, i64 %56
  %58 = load i8, i8* %57, align 1
  %59 = sext i8 %58 to i32
  %60 = icmp eq i32 %59, 84
  br i1 %60, label %61, label %68

61:                                               ; preds = %51
  %62 = load i32, i32* @i, align 4
  %63 = sext i32 %62 to i64
  %64 = getelementptr inbounds [100 x [100 x i8]], [100 x [100 x i8]]* @s, i64 0, i64 %63
  %65 = load i32, i32* @j, align 4
  %66 = sext i32 %65 to i64
  %67 = getelementptr inbounds [100 x i8], [100 x i8]* %64, i64 0, i64 %66
  store i8 65, i8* %67, align 1
  br label %104

68:                                               ; preds = %51
  %69 = load i32, i32* @i, align 4
  %70 = sext i32 %69 to i64
  %71 = getelementptr inbounds [100 x [100 x i8]], [100 x [100 x i8]]* @s, i64 0, i64 %70
  %72 = load i32, i32* @j, align 4
  %73 = sext i32 %72 to i64
  %74 = getelementptr inbounds [100 x i8], [100 x i8]* %71, i64 0, i64 %73
  %75 = load i8, i8* %74, align 1
  %76 = sext i8 %75 to i32
  %77 = icmp eq i32 %76, 67
  br i1 %77, label %78, label %85

78:                                               ; preds = %68
  %79 = load i32, i32* @i, align 4
  %80 = sext i32 %79 to i64
  %81 = getelementptr inbounds [100 x [100 x i8]], [100 x [100 x i8]]* @s, i64 0, i64 %80
  %82 = load i32, i32* @j, align 4
  %83 = sext i32 %82 to i64
  %84 = getelementptr inbounds [100 x i8], [100 x i8]* %81, i64 0, i64 %83
  store i8 71, i8* %84, align 1
  br label %103

85:                                               ; preds = %68
  %86 = load i32, i32* @i, align 4
  %87 = sext i32 %86 to i64
  %88 = getelementptr inbounds [100 x [100 x i8]], [100 x [100 x i8]]* @s, i64 0, i64 %87
  %89 = load i32, i32* @j, align 4
  %90 = sext i32 %89 to i64
  %91 = getelementptr inbounds [100 x i8], [100 x i8]* %88, i64 0, i64 %90
  %92 = load i8, i8* %91, align 1
  %93 = sext i8 %92 to i32
  %94 = icmp eq i32 %93, 71
  br i1 %94, label %95, label %102

95:                                               ; preds = %85
  %96 = load i32, i32* @i, align 4
  %97 = sext i32 %96 to i64
  %98 = getelementptr inbounds [100 x [100 x i8]], [100 x [100 x i8]]* @s, i64 0, i64 %97
  %99 = load i32, i32* @j, align 4
  %100 = sext i32 %99 to i64
  %101 = getelementptr inbounds [100 x i8], [100 x i8]* %98, i64 0, i64 %100
  store i8 67, i8* %101, align 1
  br label %102

102:                                              ; preds = %95, %85
  br label %103

103:                                              ; preds = %102, %78
  br label %104

104:                                              ; preds = %103, %61
  br label %105

105:                                              ; preds = %104, %44
  br label %106

106:                                              ; preds = %105
  %107 = load i32, i32* @j, align 4
  %108 = add nsw i32 %107, 1
  store i32 %108, i32* @j, align 4
  br label %24

109:                                              ; preds = %24
  br label %110

110:                                              ; preds = %109
  %111 = load i32, i32* @i, align 4
  %112 = add nsw i32 %111, 1
  store i32 %112, i32* @i, align 4
  br label %18

113:                                              ; preds = %18
  store i32 0, i32* @i, align 4
  br label %114

114:                                              ; preds = %125, %113
  %115 = load i32, i32* @i, align 4
  %116 = load i32, i32* @n, align 4
  %117 = sub nsw i32 %116, 1
  %118 = icmp sle i32 %115, %117
  br i1 %118, label %119, label %128

119:                                              ; preds = %114
  %120 = load i32, i32* @i, align 4
  %121 = sext i32 %120 to i64
  %122 = getelementptr inbounds [100 x [100 x i8]], [100 x [100 x i8]]* @s, i64 0, i64 %121
  %123 = getelementptr inbounds [100 x i8], [100 x i8]* %122, i64 0, i64 0
  %124 = call i32 (i8*, ...) @printf(i8* getelementptr inbounds ([4 x i8], [4 x i8]* @.str.2, i64 0, i64 0), i8* %123)
  br label %125

125:                                              ; preds = %119
  %126 = load i32, i32* @i, align 4
  %127 = add nsw i32 %126, 1
  store i32 %127, i32* @i, align 4
  br label %114

128:                                              ; preds = %114
  ret i32 0
}

declare dso_local i32 @__isoc99_scanf(i8*, ...) #1

declare dso_local i32 @printf(i8*, ...) #1


!llvm.module.flags = !{!0}
!llvm.ident = !{!1}

!0 = !{i32 1, !"wchar_size", i32 4}
!1 = !{!"clang version 10.0.0-4ubuntu1 "}
